; ModuleID = '60/1861.c'
source_filename = "60/1861.c"
target datalayout = "e-m:e-p270:32:32-p271:32:32-p272:64:64-i64:64-f80:128-n8:16:32:64-S128"
target triple = "x86_64-pc-linux-gnu"

@.str = private unnamed_addr constant [3 x i8] c"%d\00", align 1
@.str.1 = private unnamed_addr constant [7 x i8] c"%d %d\0A\00", align 1
@.str.2 = private unnamed_addr constant [6 x i8] c"empty\00", align 1

; Function Attrs: noinline nounwind uwtable
define dso_local i32 @main() #0 {
  %1 = alloca i32, align 4
  %2 = alloca i32, align 4
  %3 = alloca i32, align 4
  %4 = alloca i32, align 4
  %5 = alloca i32, align 4
  %6 = alloca i32, align 4
  %7 = alloca i32, align 4
  %8 = alloca i32, align 4
  %9 = alloca i32, align 4
  store i32 0, i32* %1, align 4
  store i32 0, i32* %9, align 4
  %10 = call i32 (i8*, ...) @__isoc99_scanf(i8* getelementptr inbounds ([3 x i8], [3 x i8]* @.str, i64 0, i64 0), i32* %2)
  store i32 2, i32* %3, align 4
  br label %11

11:                                               ; preds = %74, %0
  %12 = load i32, i32* %3, align 4
  %13 = load i32, i32* %2, align 4
  %14 = sub nsw i32 %13, 2
  %15 = icmp sle i32 %12, %14
  br i1 %15, label %16, label %77

16:                                               ; preds = %11
  %17 = load i32, i32* %3, align 4
  %18 = sitofp i32 %17 to double
  %19 = call double @sqrt(double %18) #3
  %20 = fptosi double %19 to i32
  store i32 %20, i32* %5, align 4
  store i32 2, i32* %7, align 4
  br label %21

21:                                               ; preds = %32, %16
  %22 = load i32, i32* %7, align 4
  %23 = load i32, i32* %5, align 4
  %24 = icmp sle i32 %22, %23
  br i1 %24, label %25, label %35

25:                                               ; preds = %21
  %26 = load i32, i32* %3, align 4
  %27 = load i32, i32* %7, align 4
  %28 = srem i32 %26, %27
  %29 = icmp eq i32 %28, 0
  br i1 %29, label %30, label %31

30:                                               ; preds = %25
  br label %35

31:                                               ; preds = %25
  br label %32

32:                                               ; preds = %31
  %33 = load i32, i32* %7, align 4
  %34 = add nsw i32 %33, 1
  store i32 %34, i32* %7, align 4
  br label %21

35:                                               ; preds = %30, %21
  %36 = load i32, i32* %7, align 4
  %37 = load i32, i32* %5, align 4
  %38 = add nsw i32 %37, 1
  %39 = icmp sge i32 %36, %38
  br i1 %39, label %40, label %73

40:                                               ; preds = %35
  %41 = load i32, i32* %3, align 4
  %42 = add nsw i32 %41, 2
  store i32 %42, i32* %4, align 4
  %43 = load i32, i32* %4, align 4
  %44 = sitofp i32 %43 to double
  %45 = call double @sqrt(double %44) #3
  %46 = fptosi double %45 to i32
  store i32 %46, i32* %6, align 4
  store i32 2, i32* %8, align 4
  br label %47

47:                                               ; preds = %58, %40
  %48 = load i32, i32* %8, align 4
  %49 = load i32, i32* %6, align 4
  %50 = icmp sle i32 %48, %49
  br i1 %50, label %51, label %61

51:                                               ; preds = %47
  %52 = load i32, i32* %4, align 4
  %53 = load i32, i32* %8, align 4
  %54 = srem i32 %52, %53
  %55 = icmp eq i32 %54, 0
  br i1 %55, label %56, label %57

56:                                               ; preds = %51
  br label %61

57:                                               ; preds = %51
  br label %58

58:                                               ; preds = %57
  %59 = load i32, i32* %8, align 4
  %60 = add nsw i32 %59, 1
  store i32 %60, i32* %8, align 4
  br label %47

61:                                               ; preds = %56, %47
  %62 = load i32, i32* %8, align 4
  %63 = load i32, i32* %6, align 4
  %64 = add nsw i32 %63, 1
  %65 = icmp sge i32 %62, %64
  br i1 %65, label %66, label %72

66:                                               ; preds = %61
  %67 = load i32, i32* %3, align 4
  %68 = load i32, i32* %4, align 4
  %69 = call i32 (i8*, ...) @printf(i8* getelementptr inbounds ([7 x i8], [7 x i8]* @.str.1, i64 0, i64 0), i32 %67, i32 %68)
  %70 = load i32, i32* %9, align 4
  %71 = add nsw i32 %70, 1
  store i32 %71, i32* %9, align 4
  br label %72

72:                                               ; preds = %66, %61
  br label %73

73:                                               ; preds = %72, %35
  br label %74

74:                                               ; preds = %73
  %75 = load i32, i32* %3, align 4
  %76 = add nsw i32 %75, 1
  store i32 %76, i32* %3, align 4
  br label %11

77:                                               ; preds = %11
  %78 = load i32, i32* %9, align 4
  %79 = icmp eq i32 %78, 0
  br i1 %79, label %80, label %82

80:                                               ; preds = %77
  %81 = call i32 (i8*, ...) @printf(i8* getelementptr inbounds ([6 x i8], [6 x i8]* @.str.2, i64 0, i64 0))
  br label %82

82:                                               ; preds = %80, %77
  %83 = load i32, i32* %1, align 4
  ret i32 %83
}

declare dso_local i32 @__isoc99_scanf(i8*, ...) #1

; Function Attrs: nounwind
declare dso_local double @sqrt(double) #2

declare dso_local i32 @printf(i8*, ...) #1


!llvm.module.flags = !{!0}
!llvm.ident = !{!1}

!0 = !{i32 1, !"wchar_size", i32 4}
!1 = !{!"clang version 10.0.0-4ubuntu1 "}
